target datalayout = "e-m:e-p270:32:32-p271:32:32-p272:64:64-i64:64-i128:128-f80:128-n8:16:32:64-S128"
target triple = "x86_64-pc-linux-gnu"

%struct.SDL_GPUDevice = type { ptr, ptr, ptr, ptr, ptr, ptr, ptr, ptr, ptr, ptr, ptr, ptr, ptr, ptr, ptr, ptr, ptr, ptr, ptr, ptr, ptr, ptr, ptr, ptr, ptr, ptr, ptr, ptr, ptr, ptr, ptr, ptr, ptr, ptr, ptr, ptr, ptr, ptr, ptr, ptr, ptr, ptr, ptr, ptr, ptr, ptr, ptr, ptr, ptr, ptr, ptr, ptr, ptr, ptr, ptr, ptr, ptr, ptr, ptr, ptr, ptr, ptr, ptr, ptr, ptr, ptr, ptr, ptr, ptr, ptr, ptr, ptr, ptr, ptr, ptr, ptr, ptr, ptr, ptr, ptr, ptr, ptr, ptr, ptr, ptr, i32, i8 }
%struct.CommandBufferCommonHeader = type { ptr, %struct.RenderPass, i8, %struct.Pass, i8, %struct.Pass, i8, i8, i8 }
%struct.RenderPass = type { ptr, i8, [4 x ptr], i32, ptr }
%struct.Pass = type { ptr, i8 }
%struct.SDL_GPUTransferBufferLocation = type { ptr, i32 }
%struct.SDL_GPUBufferRegion = type { ptr, i32, i32 }

@.str.4 = private unnamed_addr constant [26 x i8] c"Parameter '%s' is invalid\00", align 1
@.str.8 = private unnamed_addr constant [103 x i8] c"generated/home/dtcxzyw/WorkSpace/Projects/compilers/llvm-opt-benchmark/bench/sdl/SDL/src/gpu/SDL_gpu.c\00", align 1
@.str.286 = private unnamed_addr constant [10 x i8] c"copy_pass\00", align 1
@.str.287 = private unnamed_addr constant [7 x i8] c"source\00", align 1
@.str.288 = private unnamed_addr constant [12 x i8] c"destination\00", align 1
@SDL_DownloadFromGPUBuffer_REAL.sdl_assert_data = internal global { i8, [3 x i8], i32, ptr, ptr, i32, [4 x i8], ptr, ptr } { i8 0, [3 x i8] zeroinitializer, i32 0, ptr @.str.290, ptr null, i32 0, [4 x i8] zeroinitializer, ptr null, ptr null }, align 8
@__func__.SDL_DownloadFromGPUBuffer_REAL = private unnamed_addr constant [31 x i8] c"SDL_DownloadFromGPUBuffer_REAL\00", align 1
@SDL_DownloadFromGPUBuffer_REAL.sdl_assert_data.316 = internal global { i8, [3 x i8], i32, ptr, ptr, i32, [4 x i8], ptr, ptr } { i8 0, [3 x i8] zeroinitializer, i32 0, ptr @.str.310, ptr null, i32 0, [4 x i8] zeroinitializer, ptr null, ptr null }, align 8
@SDL_DownloadFromGPUBuffer_REAL.sdl_assert_data.317 = internal global { i8, [3 x i8], i32, ptr, ptr, i32, [4 x i8], ptr, ptr } { i8 0, [3 x i8] zeroinitializer, i32 0, ptr @.str.315, ptr null, i32 0, [4 x i8] zeroinitializer, ptr null, ptr null }, align 8

; Function Attrs: nounwind uwtable
define hidden void @SDL_DownloadFromGPUBuffer_REAL(ptr noundef %0, ptr noundef %1, ptr noundef %2) #0 {
  %4 = alloca ptr, align 8
  %5 = alloca ptr, align 8
  %6 = alloca ptr, align 8
  %7 = alloca i32, align 4
  %8 = alloca i32, align 4
  %9 = alloca i32, align 4
  %10 = alloca i32, align 4
  store ptr %0, ptr %4, align 8
  store ptr %1, ptr %5, align 8
  store ptr %2, ptr %6, align 8
  %11 = load ptr, ptr %4, align 8
  %12 = icmp eq ptr %11, null
  br i1 %12, label %13, label %15

13:                                               ; preds = %3
  %14 = call zeroext i1 (ptr, ...) @SDL_SetError_REAL(ptr noundef @.str.4, ptr noundef @.str.286)
  br label %114

15:                                               ; preds = %3
  %16 = load ptr, ptr %5, align 8
  %17 = icmp eq ptr %16, null
  br i1 %17, label %18, label %20

18:                                               ; preds = %15
  %19 = call zeroext i1 (ptr, ...) @SDL_SetError_REAL(ptr noundef @.str.4, ptr noundef @.str.287)
  br label %114

20:                                               ; preds = %15
  %21 = load ptr, ptr %6, align 8
  %22 = icmp eq ptr %21, null
  br i1 %22, label %23, label %25

23:                                               ; preds = %20
  %24 = call zeroext i1 (ptr, ...) @SDL_SetError_REAL(ptr noundef @.str.4, ptr noundef @.str.288)
  br label %114

25:                                               ; preds = %20
  %26 = load ptr, ptr %4, align 8
  %27 = getelementptr inbounds nuw %struct.Pass, ptr %26, i32 0, i32 0
  %28 = load ptr, ptr %27, align 8
  %29 = getelementptr inbounds nuw %struct.CommandBufferCommonHeader, ptr %28, i32 0, i32 0
  %30 = load ptr, ptr %29, align 8
  %31 = getelementptr inbounds nuw %struct.SDL_GPUDevice, ptr %30, i32 0, i32 86
  %32 = load i8, ptr %31, align 4, !range !5, !noundef !6
  %33 = trunc i8 %32 to i1
  br i1 %33, label %34, label %101

34:                                               ; preds = %25
  %35 = load ptr, ptr %4, align 8
  %36 = getelementptr inbounds nuw %struct.Pass, ptr %35, i32 0, i32 1
  %37 = load i8, ptr %36, align 8, !range !5, !noundef !6
  %38 = trunc i8 %37 to i1
  br i1 %38, label %56, label %39

39:                                               ; preds = %34
  br label %40

40:                                               ; preds = %39
  br label %41

41:                                               ; preds = %40, %52
  call void @llvm.lifetime.start.p0(i64 4, ptr %7) #6
  %42 = call i32 @SDL_ReportAssertion_REAL(ptr noundef @SDL_DownloadFromGPUBuffer_REAL.sdl_assert_data, ptr noundef @__func__.SDL_DownloadFromGPUBuffer_REAL, ptr noundef @.str.8, i32 noundef 2670)
  store i32 %42, ptr %7, align 4
  %43 = load i32, ptr %7, align 4
  %44 = icmp eq i32 %43, 0
  br i1 %44, label %45, label %46

45:                                               ; preds = %41
  store i32 4, ptr %8, align 4
  br label %52

46:                                               ; preds = %41
  %47 = load i32, ptr %7, align 4
  %48 = icmp eq i32 %47, 1
  br i1 %48, label %49, label %50

49:                                               ; preds = %46
  call void @llvm.debugtrap()
  br label %50

50:                                               ; preds = %49, %46
  br label %51

51:                                               ; preds = %50
  store i32 5, ptr %8, align 4
  br label %52

52:                                               ; preds = %51, %45
  call void @llvm.lifetime.end.p0(i64 4, ptr %7) #6
  %53 = load i32, ptr %8, align 4
  switch i32 %53, label %115 [
    i32 4, label %41
    i32 5, label %54
  ]

54:                                               ; preds = %52
  br label %55

55:                                               ; preds = %54
  br label %114

56:                                               ; preds = %34
  %57 = load ptr, ptr %5, align 8
  %58 = getelementptr inbounds nuw %struct.SDL_GPUBufferRegion, ptr %57, i32 0, i32 0
  %59 = load ptr, ptr %58, align 8
  %60 = icmp eq ptr %59, null
  br i1 %60, label %61, label %78

61:                                               ; preds = %56
  br label %62

62:                                               ; preds = %61
  br label %63

63:                                               ; preds = %62, %74
  call void @llvm.lifetime.start.p0(i64 4, ptr %9) #6
  %64 = call i32 @SDL_ReportAssertion_REAL(ptr noundef @SDL_DownloadFromGPUBuffer_REAL.sdl_assert_data.316, ptr noundef @__func__.SDL_DownloadFromGPUBuffer_REAL, ptr noundef @.str.8, i32 noundef 2672)
  store i32 %64, ptr %9, align 4
  %65 = load i32, ptr %9, align 4
  %66 = icmp eq i32 %65, 0
  br i1 %66, label %67, label %68

67:                                               ; preds = %63
  store i32 8, ptr %8, align 4
  br label %74

68:                                               ; preds = %63
  %69 = load i32, ptr %9, align 4
  %70 = icmp eq i32 %69, 1
  br i1 %70, label %71, label %72

71:                                               ; preds = %68
  call void @llvm.debugtrap()
  br label %72

72:                                               ; preds = %71, %68
  br label %73

73:                                               ; preds = %72
  store i32 9, ptr %8, align 4
  br label %74

74:                                               ; preds = %73, %67
  call void @llvm.lifetime.end.p0(i64 4, ptr %9) #6
  %75 = load i32, ptr %8, align 4
  switch i32 %75, label %115 [
    i32 8, label %63
    i32 9, label %76
  ]

76:                                               ; preds = %74
  br label %77

77:                                               ; preds = %76
  br label %114

78:                                               ; preds = %56
  %79 = load ptr, ptr %6, align 8
  %80 = getelementptr inbounds nuw %struct.SDL_GPUTransferBufferLocation, ptr %79, i32 0, i32 0
  %81 = load ptr, ptr %80, align 8
  %82 = icmp eq ptr %81, null
  br i1 %82, label %83, label %100

83:                                               ; preds = %78
  br label %84

84:                                               ; preds = %83
  br label %85

85:                                               ; preds = %84, %96
  call void @llvm.lifetime.start.p0(i64 4, ptr %10) #6
  %86 = call i32 @SDL_ReportAssertion_REAL(ptr noundef @SDL_DownloadFromGPUBuffer_REAL.sdl_assert_data.317, ptr noundef @__func__.SDL_DownloadFromGPUBuffer_REAL, ptr noundef @.str.8, i32 noundef 2676)
  store i32 %86, ptr %10, align 4
  %87 = load i32, ptr %10, align 4
  %88 = icmp eq i32 %87, 0
  br i1 %88, label %89, label %90

89:                                               ; preds = %85
  store i32 12, ptr %8, align 4
  br label %96

90:                                               ; preds = %85
  %91 = load i32, ptr %10, align 4
  %92 = icmp eq i32 %91, 1
  br i1 %92, label %93, label %94

93:                                               ; preds = %90
  call void @llvm.debugtrap()
  br label %94

94:                                               ; preds = %93, %90
  br label %95

95:                                               ; preds = %94
  store i32 13, ptr %8, align 4
  br label %96

96:                                               ; preds = %95, %89
  call void @llvm.lifetime.end.p0(i64 4, ptr %10) #6
  %97 = load i32, ptr %8, align 4
  switch i32 %97, label %115 [
    i32 12, label %85
    i32 13, label %98
  ]

98:                                               ; preds = %96
  br label %99

99:                                               ; preds = %98
  br label %114

100:                                              ; preds = %78
  br label %101

101:                                              ; preds = %100, %25
  %102 = load ptr, ptr %4, align 8
  %103 = getelementptr inbounds nuw %struct.Pass, ptr %102, i32 0, i32 0
  %104 = load ptr, ptr %103, align 8
  %105 = getelementptr inbounds nuw %struct.CommandBufferCommonHeader, ptr %104, i32 0, i32 0
  %106 = load ptr, ptr %105, align 8
  %107 = getelementptr inbounds nuw %struct.SDL_GPUDevice, ptr %106, i32 0, i32 60
  %108 = load ptr, ptr %107, align 8
  %109 = load ptr, ptr %4, align 8
  %110 = getelementptr inbounds nuw %struct.Pass, ptr %109, i32 0, i32 0
  %111 = load ptr, ptr %110, align 8
  %112 = load ptr, ptr %5, align 8
  %113 = load ptr, ptr %6, align 8
  call void %108(ptr noundef %111, ptr noundef %112, ptr noundef %113)
  br label %114

114:                                              ; preds = %101, %99, %77, %55, %23, %18, %13
  ret void

115:                                              ; preds = %96, %74, %52
  unreachable
}