; Function Attrs: nounwind uwtable
define hidden void @SDL_DownloadFromGPUBuffer_REAL(ptr noundef readonly captures(address_is_null) %0, ptr noundef %1, ptr noundef %2) local_unnamed_addr #0 {
  %4 = icmp eq ptr %0, null
  br i1 %4, label %5, label %7

5:                                                ; preds = %3
  %6 = tail call zeroext i1 (ptr, ...) @SDL_SetError_REAL(ptr noundef nonnull @.str.4, ptr noundef nonnull @.str.286) #7
  br label %.thread

7:                                                ; preds = %3
  %8 = icmp eq ptr %1, null
  br i1 %8, label %9, label %11

9:                                                ; preds = %7
  %10 = tail call zeroext i1 (ptr, ...) @SDL_SetError_REAL(ptr noundef nonnull @.str.4, ptr noundef nonnull @.str.287) #7
  br label %.thread

11:                                               ; preds = %7
  %12 = icmp eq ptr %2, null
  br i1 %12, label %13, label %15

13:                                               ; preds = %11
  %14 = tail call zeroext i1 (ptr, ...) @SDL_SetError_REAL(ptr noundef nonnull @.str.4, ptr noundef nonnull @.str.288) #7
  br label %.thread

15:                                               ; preds = %11
  %16 = load ptr, ptr %0, align 8
  %17 = load ptr, ptr %16, align 8
  %18 = getelementptr inbounds nuw i8, ptr %17, i64 684
  %19 = load i8, ptr %18, align 4, !range !5, !noundef !6
  %20 = trunc nuw i8 %19 to i1
  br i1 %20, label %21, label %37

21:                                               ; preds = %15
  %22 = getelementptr inbounds nuw i8, ptr %0, i64 8
  %23 = load i8, ptr %22, align 8, !range !5, !noundef !6
  %24 = trunc nuw i8 %23 to i1
  br i1 %24, label %27, label %.preheader42

.preheader42:                                     ; preds = %21, %.preheader42
  %25 = tail call i32 @SDL_ReportAssertion_REAL(ptr noundef nonnull @SDL_DownloadFromGPUBuffer_REAL.sdl_assert_data, ptr noundef nonnull @__func__.SDL_DownloadFromGPUBuffer_REAL, ptr noundef nonnull @.str.8, i32 noundef 2670) #7
  switch i32 %25, label %.thread [
    i32 0, label %.preheader42
    i32 1, label %26
  ]

26:                                               ; preds = %.preheader42
  tail call void @llvm.debugtrap()
  br label %.thread

27:                                               ; preds = %21
  %28 = load ptr, ptr %1, align 8
  %29 = icmp eq ptr %28, null
  br i1 %29, label %.preheader, label %32

.preheader:                                       ; preds = %27, %.preheader
  %30 = tail call i32 @SDL_ReportAssertion_REAL(ptr noundef nonnull @SDL_DownloadFromGPUBuffer_REAL.sdl_assert_data.316, ptr noundef nonnull @__func__.SDL_DownloadFromGPUBuffer_REAL, ptr noundef nonnull @.str.8, i32 noundef 2672) #7
  switch i32 %30, label %.thread [
    i32 0, label %.preheader
    i32 1, label %31
  ]

31:                                               ; preds = %.preheader
  tail call void @llvm.debugtrap()
  br label %.thread

32:                                               ; preds = %27
  %33 = load ptr, ptr %2, align 8
  %34 = icmp eq ptr %33, null
  br i1 %34, label %.preheader40, label %37

.preheader40:                                     ; preds = %32, %.preheader40
  %35 = tail call i32 @SDL_ReportAssertion_REAL(ptr noundef nonnull @SDL_DownloadFromGPUBuffer_REAL.sdl_assert_data.317, ptr noundef nonnull @__func__.SDL_DownloadFromGPUBuffer_REAL, ptr noundef nonnull @.str.8, i32 noundef 2676) #7
  switch i32 %35, label %.thread [
    i32 0, label %.preheader40
    i32 1, label %36
  ]

36:                                               ; preds = %.preheader40
  tail call void @llvm.debugtrap()
  br label %.thread

37:                                               ; preds = %32, %15
  %38 = getelementptr inbounds nuw i8, ptr %17, i64 480
  %39 = load ptr, ptr %38, align 8
  tail call void %39(ptr noundef nonnull %16, ptr noundef nonnull %1, ptr noundef nonnull %2) #7
  br label %.thread

.thread:                                          ; preds = %.preheader42, %.preheader40, %.preheader, %36, %31, %26, %37, %13, %9, %5
  ret void
}